target datalayout = "e-m:e-p270:32:32-p271:32:32-p272:64:64-i64:64-i128:128-f80:128-n8:16:32:64-S128"
target triple = "x86_64-pc-linux-gnu"

%struct.SyncOps = type { ptr, ptr, ptr }
%struct.ForEachState = type { ptr, i32 }
%struct.List = type { i32, i32, i32, ptr, [0 x %union.ListCell] }
%union.ListCell = type { ptr }
%struct.PendingUnlinkEntry = type { %struct.FileTag, i16, i8 }
%struct.FileTag = type { i16, i16, %struct.RelFileLocator, i64 }
%struct.RelFileLocator = type { i32, i32, i32 }
%struct.HASH_SEQ_STATUS = type { ptr, i32, ptr, i8, i32 }
%struct.PendingFsyncEntry = type { %struct.FileTag, i16, i8 }

@pendingOpsCxt = internal global ptr null, align 8
@pendingOps = internal global ptr null, align 8
@pendingUnlinks = internal global ptr null, align 8
@checkpoint_cycle_ctr = internal global i16 0, align 2
@sync_cycle_ctr = internal global i16 0, align 2
@CurrentMemoryContext = external global ptr, align 8

; Function Attrs: inlinehint nounwind uwtable
define internal ptr @MemoryContextSwitchTo(ptr noundef %0) #6 {
  %2 = alloca ptr, align 8
  %3 = alloca ptr, align 8
  store ptr %0, ptr %2, align 8
  call void @llvm.lifetime.start.p0(i64 8, ptr %3) #9
  %4 = load ptr, ptr @CurrentMemoryContext, align 8
  store ptr %4, ptr %3, align 8
  %5 = load ptr, ptr %2, align 8
  store ptr %5, ptr @CurrentMemoryContext, align 8
  %6 = load ptr, ptr %3, align 8
  call void @llvm.lifetime.end.p0(i64 8, ptr %3) #9
  ret ptr %6
}

; Function Attrs: nounwind uwtable
define dso_local void @RememberSyncRequest(ptr noundef %0, i32 noundef %1) #0 {
  %3 = alloca ptr, align 8
  %4 = alloca i32, align 4
  %5 = alloca ptr, align 8
  %6 = alloca %struct.HASH_SEQ_STATUS, align 8
  %7 = alloca ptr, align 8
  %8 = alloca ptr, align 8
  %9 = alloca %struct.ForEachState, align 8
  %10 = alloca ptr, align 8
  %11 = alloca ptr, align 8
  %12 = alloca ptr, align 8
  %13 = alloca ptr, align 8
  %14 = alloca ptr, align 8
  %15 = alloca i8, align 1
  store ptr %0, ptr %3, align 8
  store i32 %1, ptr %4, align 4
  %16 = load i32, ptr %4, align 4
  %17 = icmp eq i32 %16, 2
  br i1 %17, label %18, label %28

18:                                               ; preds = %2
  call void @llvm.lifetime.start.p0(i64 8, ptr %5) #9
  %19 = load ptr, ptr @pendingOps, align 8
  %20 = load ptr, ptr %3, align 8
  %21 = call ptr @hash_search(ptr noundef %19, ptr noundef %20, i32 noundef 0, ptr noundef null)
  store ptr %21, ptr %5, align 8
  %22 = load ptr, ptr %5, align 8
  %23 = icmp ne ptr %22, null
  br i1 %23, label %24, label %27

24:                                               ; preds = %18
  %25 = load ptr, ptr %5, align 8
  %26 = getelementptr inbounds nuw %struct.PendingFsyncEntry, ptr %25, i32 0, i32 2
  store i8 1, ptr %26, align 2
  br label %27

27:                                               ; preds = %24, %18
  call void @llvm.lifetime.end.p0(i64 8, ptr %5) #9
  br label %172

28:                                               ; preds = %2
  %29 = load i32, ptr %4, align 4
  %30 = icmp eq i32 %29, 3
  br i1 %30, label %31, label %128

31:                                               ; preds = %28
  call void @llvm.lifetime.start.p0(i64 32, ptr %6) #9
  call void @llvm.lifetime.start.p0(i64 8, ptr %7) #9
  call void @llvm.lifetime.start.p0(i64 8, ptr %8) #9
  %32 = load ptr, ptr @pendingOps, align 8
  call void @hash_seq_init(ptr noundef %6, ptr noundef %32)
  br label %33

33:                                               ; preds = %62, %31
  %34 = call ptr @hash_seq_search(ptr noundef %6)
  store ptr %34, ptr %7, align 8
  %35 = icmp ne ptr %34, null
  br i1 %35, label %36, label %63

36:                                               ; preds = %33
  %37 = load ptr, ptr %7, align 8
  %38 = getelementptr inbounds nuw %struct.PendingFsyncEntry, ptr %37, i32 0, i32 0
  %39 = getelementptr inbounds nuw %struct.FileTag, ptr %38, i32 0, i32 0
  %40 = load i16, ptr %39, align 8
  %41 = sext i16 %40 to i32
  %42 = load ptr, ptr %3, align 8
  %43 = getelementptr inbounds nuw %struct.FileTag, ptr %42, i32 0, i32 0
  %44 = load i16, ptr %43, align 8
  %45 = sext i16 %44 to i32
  %46 = icmp eq i32 %41, %45
  br i1 %46, label %47, label %62

47:                                               ; preds = %36
  %48 = load ptr, ptr %3, align 8
  %49 = getelementptr inbounds nuw %struct.FileTag, ptr %48, i32 0, i32 0
  %50 = load i16, ptr %49, align 8
  %51 = sext i16 %50 to i64
  %52 = getelementptr inbounds [5 x %struct.SyncOps], ptr @syncsw, i64 0, i64 %51
  %53 = getelementptr inbounds nuw %struct.SyncOps, ptr %52, i32 0, i32 2
  %54 = load ptr, ptr %53, align 8
  %55 = load ptr, ptr %3, align 8
  %56 = load ptr, ptr %7, align 8
  %57 = getelementptr inbounds nuw %struct.PendingFsyncEntry, ptr %56, i32 0, i32 0
  %58 = call zeroext i1 %54(ptr noundef %55, ptr noundef %57)
  br i1 %58, label %59, label %62

59:                                               ; preds = %47
  %60 = load ptr, ptr %7, align 8
  %61 = getelementptr inbounds nuw %struct.PendingFsyncEntry, ptr %60, i32 0, i32 2
  store i8 1, ptr %61, align 2
  br label %62

62:                                               ; preds = %59, %47, %36
  br label %33, !llvm.loop !12

63:                                               ; preds = %33
  call void @llvm.lifetime.start.p0(i64 16, ptr %9) #9
  %64 = getelementptr inbounds nuw %struct.ForEachState, ptr %9, i32 0, i32 0
  %65 = load ptr, ptr @pendingUnlinks, align 8
  store ptr %65, ptr %64, align 8
  %66 = getelementptr inbounds nuw %struct.ForEachState, ptr %9, i32 0, i32 1
  store i32 0, ptr %66, align 8
  %67 = getelementptr i8, ptr %9, i64 12
  call void @llvm.memset.p0.i64(ptr align 4 %67, i8 0, i64 4, i1 false)
  br label %68

68:                                               ; preds = %123, %63
  %69 = getelementptr inbounds nuw %struct.ForEachState, ptr %9, i32 0, i32 0
  %70 = load ptr, ptr %69, align 8
  %71 = icmp ne ptr %70, null
  br i1 %71, label %72, label %89

72:                                               ; preds = %68
  %73 = getelementptr inbounds nuw %struct.ForEachState, ptr %9, i32 0, i32 1
  %74 = load i32, ptr %73, align 8
  %75 = getelementptr inbounds nuw %struct.ForEachState, ptr %9, i32 0, i32 0
  %76 = load ptr, ptr %75, align 8
  %77 = getelementptr inbounds nuw %struct.List, ptr %76, i32 0, i32 1
  %78 = load i32, ptr %77, align 4
  %79 = icmp slt i32 %74, %78
  br i1 %79, label %80, label %89

80:                                               ; preds = %72
  %81 = getelementptr inbounds nuw %struct.ForEachState, ptr %9, i32 0, i32 0
  %82 = load ptr, ptr %81, align 8
  %83 = getelementptr inbounds nuw %struct.List, ptr %82, i32 0, i32 3
  %84 = load ptr, ptr %83, align 8
  %85 = getelementptr inbounds nuw %struct.ForEachState, ptr %9, i32 0, i32 1
  %86 = load i32, ptr %85, align 8
  %87 = sext i32 %86 to i64
  %88 = getelementptr inbounds %union.ListCell, ptr %84, i64 %87
  store ptr %88, ptr %8, align 8
  br label %90

89:                                               ; preds = %72, %68
  store ptr null, ptr %8, align 8
  br label %90

90:                                               ; preds = %89, %80
  %91 = phi i32 [ 1, %80 ], [ 0, %89 ]
  %92 = icmp ne i32 %91, 0
  br i1 %92, label %94, label %93

93:                                               ; preds = %90
  call void @llvm.lifetime.end.p0(i64 16, ptr %9) #9
  br label %127

94:                                               ; preds = %90
  call void @llvm.lifetime.start.p0(i64 8, ptr %10) #9
  %95 = load ptr, ptr %8, align 8
  %96 = load ptr, ptr %95, align 8
  store ptr %96, ptr %10, align 8
  %97 = load ptr, ptr %10, align 8
  %98 = getelementptr inbounds nuw %struct.PendingUnlinkEntry, ptr %97, i32 0, i32 0
  %99 = getelementptr inbounds nuw %struct.FileTag, ptr %98, i32 0, i32 0
  %100 = load i16, ptr %99, align 8
  %101 = sext i16 %100 to i32
  %102 = load ptr, ptr %3, align 8
  %103 = getelementptr inbounds nuw %struct.FileTag, ptr %102, i32 0, i32 0
  %104 = load i16, ptr %103, align 8
  %105 = sext i16 %104 to i32
  %106 = icmp eq i32 %101, %105
  br i1 %106, label %107, label %122

107:                                              ; preds = %94
  %108 = load ptr, ptr %3, align 8
  %109 = getelementptr inbounds nuw %struct.FileTag, ptr %108, i32 0, i32 0
  %110 = load i16, ptr %109, align 8
  %111 = sext i16 %110 to i64
  %112 = getelementptr inbounds [5 x %struct.SyncOps], ptr @syncsw, i64 0, i64 %111
  %113 = getelementptr inbounds nuw %struct.SyncOps, ptr %112, i32 0, i32 2
  %114 = load ptr, ptr %113, align 8
  %115 = load ptr, ptr %3, align 8
  %116 = load ptr, ptr %10, align 8
  %117 = getelementptr inbounds nuw %struct.PendingUnlinkEntry, ptr %116, i32 0, i32 0
  %118 = call zeroext i1 %114(ptr noundef %115, ptr noundef %117)
  br i1 %118, label %119, label %122

119:                                              ; preds = %107
  %120 = load ptr, ptr %10, align 8
  %121 = getelementptr inbounds nuw %struct.PendingUnlinkEntry, ptr %120, i32 0, i32 2
  store i8 1, ptr %121, align 2
  br label %122

122:                                              ; preds = %119, %107, %94
  call void @llvm.lifetime.end.p0(i64 8, ptr %10) #9
  br label %123

123:                                              ; preds = %122
  %124 = getelementptr inbounds nuw %struct.ForEachState, ptr %9, i32 0, i32 1
  %125 = load i32, ptr %124, align 8
  %126 = add i32 %125, 1
  store i32 %126, ptr %124, align 8
  br label %68, !llvm.loop !13

127:                                              ; preds = %93
  call void @llvm.lifetime.end.p0(i64 8, ptr %8) #9
  call void @llvm.lifetime.end.p0(i64 8, ptr %7) #9
  call void @llvm.lifetime.end.p0(i64 32, ptr %6) #9
  br label %171

128:                                              ; preds = %28
  %129 = load i32, ptr %4, align 4
  %130 = icmp eq i32 %129, 1
  br i1 %130, label %131, label %148

131:                                              ; preds = %128
  call void @llvm.lifetime.start.p0(i64 8, ptr %11) #9
  %132 = load ptr, ptr @pendingOpsCxt, align 8
  %133 = call ptr @MemoryContextSwitchTo(ptr noundef %132)
  store ptr %133, ptr %11, align 8
  call void @llvm.lifetime.start.p0(i64 8, ptr %12) #9
  %134 = call ptr @palloc(i64 noundef 32)
  store ptr %134, ptr %12, align 8
  %135 = load ptr, ptr %12, align 8
  %136 = getelementptr inbounds nuw %struct.PendingUnlinkEntry, ptr %135, i32 0, i32 0
  %137 = load ptr, ptr %3, align 8
  call void @llvm.memcpy.p0.p0.i64(ptr align 8 %136, ptr align 8 %137, i64 24, i1 false)
  %138 = load i16, ptr @checkpoint_cycle_ctr, align 2
  %139 = load ptr, ptr %12, align 8
  %140 = getelementptr inbounds nuw %struct.PendingUnlinkEntry, ptr %139, i32 0, i32 1
  store i16 %138, ptr %140, align 8
  %141 = load ptr, ptr %12, align 8
  %142 = getelementptr inbounds nuw %struct.PendingUnlinkEntry, ptr %141, i32 0, i32 2
  store i8 0, ptr %142, align 2
  %143 = load ptr, ptr @pendingUnlinks, align 8
  %144 = load ptr, ptr %12, align 8
  %145 = call ptr @lappend(ptr noundef %143, ptr noundef %144)
  store ptr %145, ptr @pendingUnlinks, align 8
  %146 = load ptr, ptr %11, align 8
  %147 = call ptr @MemoryContextSwitchTo(ptr noundef %146)
  call void @llvm.lifetime.end.p0(i64 8, ptr %12) #9
  call void @llvm.lifetime.end.p0(i64 8, ptr %11) #9
  br label %170

148:                                              ; preds = %128
  call void @llvm.lifetime.start.p0(i64 8, ptr %13) #9
  %149 = load ptr, ptr @pendingOpsCxt, align 8
  %150 = call ptr @MemoryContextSwitchTo(ptr noundef %149)
  store ptr %150, ptr %13, align 8
  call void @llvm.lifetime.start.p0(i64 8, ptr %14) #9
  call void @llvm.lifetime.start.p0(i64 1, ptr %15) #9
  %151 = load ptr, ptr @pendingOps, align 8
  %152 = load ptr, ptr %3, align 8
  %153 = call ptr @hash_search(ptr noundef %151, ptr noundef %152, i32 noundef 1, ptr noundef %15)
  store ptr %153, ptr %14, align 8
  %154 = load i8, ptr %15, align 1, !range !4, !noundef !5
  %155 = trunc i8 %154 to i1
  br i1 %155, label %156, label %161

156:                                              ; preds = %148
  %157 = load ptr, ptr %14, align 8
  %158 = getelementptr inbounds nuw %struct.PendingFsyncEntry, ptr %157, i32 0, i32 2
  %159 = load i8, ptr %158, align 2, !range !4, !noundef !5
  %160 = trunc i8 %159 to i1
  br i1 %160, label %161, label %167

161:                                              ; preds = %156, %148
  %162 = load i16, ptr @sync_cycle_ctr, align 2
  %163 = load ptr, ptr %14, align 8
  %164 = getelementptr inbounds nuw %struct.PendingFsyncEntry, ptr %163, i32 0, i32 1
  store i16 %162, ptr %164, align 8
  %165 = load ptr, ptr %14, align 8
  %166 = getelementptr inbounds nuw %struct.PendingFsyncEntry, ptr %165, i32 0, i32 2
  store i8 0, ptr %166, align 2
  br label %167

167:                                              ; preds = %161, %156
  %168 = load ptr, ptr %13, align 8
  %169 = call ptr @MemoryContextSwitchTo(ptr noundef %168)
  call void @llvm.lifetime.end.p0(i64 1, ptr %15) #9
  call void @llvm.lifetime.end.p0(i64 8, ptr %14) #9
  call void @llvm.lifetime.end.p0(i64 8, ptr %13) #9
  br label %170

170:                                              ; preds = %167, %131
  br label %171

171:                                              ; preds = %170, %127
  br label %172

172:                                              ; preds = %171, %27
  ret void
}