; Function Attrs: nounwind uwtable
define dso_local void @RememberSyncRequest(ptr noundef %0, i32 noundef %1) local_unnamed_addr #0 {
  %3 = alloca %struct.HASH_SEQ_STATUS, align 8
  %4 = alloca i8, align 1
  switch i32 %1, label %57 [
    i32 2, label %5
    i32 3, label %10
    i32 1, label %48
  ]

5:                                                ; preds = %2
  %6 = load ptr, ptr @pendingOps, align 8
  %7 = tail call ptr @hash_search(ptr noundef %6, ptr noundef %0, i32 noundef 0, ptr noundef null) #9
  %.not39 = icmp eq ptr %7, null
  br i1 %.not39, label %73, label %8

8:                                                ; preds = %5
  %9 = getelementptr inbounds nuw i8, ptr %7, i64 26
  store i8 1, ptr %9, align 2
  br label %73

10:                                               ; preds = %2
  call void @llvm.lifetime.start.p0(i64 32, ptr nonnull %3) #9
  %11 = load ptr, ptr @pendingOps, align 8
  call void @hash_seq_init(ptr noundef nonnull %3, ptr noundef %11) #9
  %12 = call ptr @hash_seq_search(ptr noundef nonnull %3) #9
  %.not42 = icmp eq ptr %12, null
  br i1 %.not42, label %._crit_edge, label %.lr.ph

.lr.ph:                                           ; preds = %10, %24
  %13 = phi ptr [ %25, %24 ], [ %12, %10 ]
  %14 = load i16, ptr %13, align 8
  %15 = load i16, ptr %0, align 8
  %16 = icmp eq i16 %14, %15
  br i1 %16, label %17, label %24

17:                                               ; preds = %.lr.ph
  %18 = sext i16 %14 to i64
  %19 = getelementptr inbounds [5 x %struct.SyncOps], ptr @syncsw, i64 0, i64 %18, i32 2
  %20 = load ptr, ptr %19, align 8
  %21 = call zeroext i1 %20(ptr noundef nonnull %0, ptr noundef nonnull %13) #9
  br i1 %21, label %22, label %24

22:                                               ; preds = %17
  %23 = getelementptr inbounds nuw i8, ptr %13, i64 26
  store i8 1, ptr %23, align 2
  br label %24

24:                                               ; preds = %22, %17, %.lr.ph
  %25 = call ptr @hash_seq_search(ptr noundef nonnull %3) #9
  %.not = icmp eq ptr %25, null
  br i1 %.not, label %._crit_edge, label %.lr.ph, !llvm.loop !11

._crit_edge:                                      ; preds = %24, %10
  %26 = load ptr, ptr @pendingUnlinks, align 8
  %27 = getelementptr inbounds nuw i8, ptr %26, i64 4
  %.not37 = icmp eq ptr %26, null
  br i1 %.not37, label %._crit_edge46, label %.lr.ph45

.lr.ph45:                                         ; preds = %._crit_edge
  %28 = getelementptr inbounds nuw i8, ptr %26, i64 16
  %29 = load i32, ptr %27, align 4
  %30 = icmp sgt i32 %29, 0
  br i1 %30, label %.lr.ph49, label %._crit_edge46

._crit_edge46:                                    ; preds = %44, %.lr.ph45, %._crit_edge
  call void @llvm.lifetime.end.p0(i64 32, ptr nonnull %3) #9
  br label %73

.lr.ph49:                                         ; preds = %.lr.ph45, %44
  %indvars.iv = phi i64 [ %indvars.iv.next, %44 ], [ 0, %.lr.ph45 ]
  %31 = load ptr, ptr %28, align 8
  %32 = getelementptr inbounds nuw %union.ListCell, ptr %31, i64 %indvars.iv
  %33 = load ptr, ptr %32, align 8
  %34 = load i16, ptr %33, align 8
  %35 = load i16, ptr %0, align 8
  %36 = icmp eq i16 %34, %35
  br i1 %36, label %37, label %44

37:                                               ; preds = %.lr.ph49
  %38 = sext i16 %34 to i64
  %39 = getelementptr inbounds [5 x %struct.SyncOps], ptr @syncsw, i64 0, i64 %38, i32 2
  %40 = load ptr, ptr %39, align 8
  %41 = call zeroext i1 %40(ptr noundef nonnull %0, ptr noundef nonnull %33) #9
  br i1 %41, label %42, label %44

42:                                               ; preds = %37
  %43 = getelementptr inbounds nuw i8, ptr %33, i64 26
  store i8 1, ptr %43, align 2
  br label %44

44:                                               ; preds = %42, %37, %.lr.ph49
  %indvars.iv.next = add nuw nsw i64 %indvars.iv, 1
  %45 = load i32, ptr %27, align 4
  %46 = sext i32 %45 to i64
  %47 = icmp slt i64 %indvars.iv.next, %46
  br i1 %47, label %.lr.ph49, label %._crit_edge46

48:                                               ; preds = %2
  %49 = load ptr, ptr @pendingOpsCxt, align 8
  %50 = load ptr, ptr @CurrentMemoryContext, align 8
  store ptr %49, ptr @CurrentMemoryContext, align 8
  %51 = tail call ptr @palloc(i64 noundef 32) #9
  tail call void @llvm.memcpy.p0.p0.i64(ptr noundef nonnull align 8 dereferenceable(24) %51, ptr noundef nonnull align 8 dereferenceable(24) %0, i64 24, i1 false)
  %52 = load i16, ptr @checkpoint_cycle_ctr, align 2
  %53 = getelementptr inbounds nuw i8, ptr %51, i64 24
  store i16 %52, ptr %53, align 8
  %54 = getelementptr inbounds nuw i8, ptr %51, i64 26
  store i8 0, ptr %54, align 2
  %55 = load ptr, ptr @pendingUnlinks, align 8
  %56 = tail call ptr @lappend(ptr noundef %55, ptr noundef nonnull %51) #9
  store ptr %56, ptr @pendingUnlinks, align 8
  store ptr %50, ptr @CurrentMemoryContext, align 8
  br label %73

57:                                               ; preds = %2
  %58 = load ptr, ptr @pendingOpsCxt, align 8
  %59 = load ptr, ptr @CurrentMemoryContext, align 8
  store ptr %58, ptr @CurrentMemoryContext, align 8
  call void @llvm.lifetime.start.p0(i64 1, ptr nonnull %4) #9
  %60 = load ptr, ptr @pendingOps, align 8
  %61 = call ptr @hash_search(ptr noundef %60, ptr noundef %0, i32 noundef 1, ptr noundef nonnull %4) #9
  %62 = load i8, ptr %4, align 1, !range !4, !noundef !5
  %63 = trunc nuw i8 %62 to i1
  br i1 %63, label %64, label %68

64:                                               ; preds = %57
  %65 = getelementptr inbounds nuw i8, ptr %61, i64 26
  %66 = load i8, ptr %65, align 2, !range !4, !noundef !5
  %67 = trunc nuw i8 %66 to i1
  br i1 %67, label %68, label %72

68:                                               ; preds = %64, %57
  %69 = load i16, ptr @sync_cycle_ctr, align 2
  %70 = getelementptr inbounds nuw i8, ptr %61, i64 24
  store i16 %69, ptr %70, align 8
  %71 = getelementptr inbounds nuw i8, ptr %61, i64 26
  store i8 0, ptr %71, align 2
  br label %72

72:                                               ; preds = %68, %64
  store ptr %59, ptr @CurrentMemoryContext, align 8
  call void @llvm.lifetime.end.p0(i64 1, ptr nonnull %4) #9
  br label %73

73:                                               ; preds = %5, %8, %._crit_edge46, %72, %48
  ret void
}